(dp0
S'dt'
p1
(lp2
F0.5
aF0.25
aF0.125
aF0.0625
aF0.03125
asS'Errors'
p3
(lp4
(dp5
S'Fr'
p6
cnumpy.core.multiarray
scalar
p7
(cnumpy
dtype
p8
(S'f8'
p9
I0
I1
tp10
Rp11
(I3
S'<'
p12
NNNI-1
I-1
I0
tp13
bS'\x979wDI\t\xb5?'
p14
tp15
Rp16
sS'E'
p17
g7
(g11
S'>)\xbaX\xa8\xfd\x80?'
p18
tp19
Rp20
sS'rho u'
p21
g7
(g11
S'\xb3\xfe\x92\xfaP2g?'
p22
tp23
Rp24
sS'p'
p25
g7
(g11
S'w\xb0\x14\xa8\x8du\x8f?'
p26
tp27
Rp28
sS'u'
p29
g7
(g11
S'b\x01\x14\xe8\x9c]d?'
p30
tp31
Rp32
sS'rho'
p33
g7
(g11
S'$P\x8b\x9d\x85HQ?'
p34
tp35
Rp36
sS'e'
p37
g7
(g11
S'\x16-\xdaC\xae~\x92?'
p38
tp39
Rp40
sS'Er'
p41
g7
(g11
S'\x94\x0cbp\x00\xb2\xb4?'
p42
tp43
Rp44
sa(dp45
g6
g7
(g11
S'\xa7\xbd=1\t\xe9\x95?'
p46
tp47
Rp48
sg17
g7
(g11
S'i5Q\xd1\xe9\xbda?'
p49
tp50
Rp51
sg21
g7
(g11
S'\x1a\xfbq\xdc\xa6\nF?'
p52
tp53
Rp54
sg25
g7
(g11
S'u\xdd\x10\xee\xf3\x91o?'
p55
tp56
Rp57
sg29
g7
(g11
S'\xc9o\xa7U\xd8FC?'
p58
tp59
Rp60
sg33
g7
(g11
S'P\xf9]\xf3\x0f\x9b0?'
p61
tp62
Rp63
sg37
g7
(g11
S"\xf3'JP\xb8ur?"
p64
tp65
Rp66
sg41
g7
(g11
S'\n\x0e@\x82\xefi\x95?'
p67
tp68
Rp69
sa(dp70
g6
g7
(g11
S'H\xd7\x8b Q\xd9u?'
p71
tp72
Rp73
sg17
g7
(g11
S'vDe\x9e\x86\x84A?'
p74
tp75
Rp76
sg21
g7
(g11
S'\xea\x83\x1d:\xb6\x80%?'
p77
tp78
Rp79
sg25
g7
(g11
S'\xc0\xb3:\\a\rN?'
p80
tp81
Rp82
sg29
g7
(g11
S'\xbb\xdb\xe2L\x99\xda"?'
p83
tp84
Rp85
sg33
g7
(g11
S'I\xe25\x8c\xe2Q\x10?'
p86
tp87
Rp88
sg37
g7
(g11
S'\t1i\xf9\xc8\nR?'
p89
tp90
Rp91
sg41
g7
(g11
S'\xdaa8Y\\^u?'
p92
tp93
Rp94
sa(dp95
g6
g7
(g11
S'P0*j/\xbcU?'
p96
tp97
Rp98
sg17
g7
(g11
S'.Q\xee\xf9\xc9,!?'
p99
tp100
Rp101
sg21
g7
(g11
S'\xa21 !\xa1;\x05?'
p102
tp103
Rp104
sg25
g7
(g11
S'!vQ\xb7\xec\xc5,?'
p105
tp106
Rp107
sg29
g7
(g11
S'\x8a\x8a\x12\x8a6\xaa\x02?'
p108
tp109
Rp110
sg33
g7
(g11
S'\xd5\x8e\x0c\x03\x8f/\xf0>'
p111
tp112
Rp113
sg37
g7
(g11
S'\xae\xecs2\x1f\xc61?'
p114
tp115
Rp116
sg41
g7
(g11
S'\x9b\xd2\xf8\x8b7HU?'
p117
tp118
Rp119
sa(dp120
g6
g7
(g11
S'N\xb2(\xf4\xb3\xab5?'
p121
tp122
Rp123
sg17
g7
(g11
S'\xabiy\xef\x80\xf0\x00?'
p124
tp125
Rp126
sg21
g7
(g11
S'\x9b\xf8\x19b\x9a\x18\xe5>'
p127
tp128
Rp129
sg25
g7
(g11
S'\xa3\xbd>t\t \x0c?'
p130
tp131
Rp132
sg29
g7
(g11
S'\x89-+\xdd\xce\x93\xe2>'
p133
tp134
Rp135
sg33
g7
(g11
S'8\xc5\xfb\x8a\xd3\x1e\xd0>'
p136
tp137
Rp138
sg37
g7
(g11
S'\xaa:(\x17K\xab\x11?'
p139
tp140
Rp141
sg41
g7
(g11
S'S\xa2Y\x16_95?'
p142
tp143
Rp144
sasS'dx'
p145
(lp146
F0.3141592653589793
aF0.15707963267948966
aF0.07853981633974483
aF0.039269908169872414
aF0.019634954084936207
as.